; Function Attrs: nounwind uwtable
define noalias nonnull ptr @l_Lean_Server_FileWorker_handleDocumentHighlight___lambda__2___boxed(ptr noundef %0, ptr noundef %1, ptr noundef %2, ptr noundef %3) local_unnamed_addr #0 {
  %5 = getelementptr i8, ptr %1, i64 8
  %.val = load i64, ptr %5, align 8, !tbaa !12
  %6 = ptrtoint ptr %1 to i64
  %7 = and i64 %6, 1
  %.not = icmp eq i64 %7, 0
  br i1 %.not, label %8, label %lean_dec.exit7

8:                                                ; preds = %4
  %9 = load i32, ptr %1, align 4, !tbaa !4
  %10 = icmp sgt i32 %9, 1
  br i1 %10, label %11, label %13, !prof !9

11:                                               ; preds = %8
  %12 = add nsw i32 %9, -1
  store i32 %12, ptr %1, align 4, !tbaa !4
  br label %lean_dec.exit7

13:                                               ; preds = %8
  %.not.i = icmp eq i32 %9, 0
  br i1 %.not.i, label %lean_dec.exit7, label %14

14:                                               ; preds = %13
  tail call void @lean_dec_ref_cold(ptr noundef nonnull %1) #8
  br label %lean_dec.exit7

lean_dec.exit7:                                   ; preds = %14, %13, %11, %4
  %15 = getelementptr i8, ptr %0, i64 8
  %.val.i = load i64, ptr %15, align 8, !tbaa !12
  %16 = tail call ptr @l_Array_mapMUnsafe_map___at_Lean_Server_FileWorker_handleDocumentHighlight___spec__4(i64 noundef %.val.i, i64 noundef %.val, ptr noundef %0)
  tail call void @lean_inc_heartbeat() #8
  %17 = tail call noalias ptr @mi_malloc_small(i64 noundef 16) #8
  %18 = icmp eq ptr %17, null
  br i1 %18, label %19, label %lean_alloc_ctor.exit.i

19:                                               ; preds = %lean_dec.exit7
  tail call void @lean_internal_panic_out_of_memory() #9
  unreachable

lean_alloc_ctor.exit.i:                           ; preds = %lean_dec.exit7
  %20 = getelementptr inbounds nuw i8, ptr %17, i64 4
  store i32 1, ptr %17, align 4, !tbaa !4
  store i32 16842768, ptr %20, align 4
  %21 = getelementptr inbounds nuw i8, ptr %17, i64 8
  store ptr %16, ptr %21, align 8, !tbaa !10
  tail call void @lean_inc_heartbeat() #8
  %22 = tail call noalias ptr @mi_malloc_small(i64 noundef 24) #8
  %23 = icmp eq ptr %22, null
  br i1 %23, label %24, label %l_Lean_Server_FileWorker_handleDocumentHighlight___lambda__2.exit

24:                                               ; preds = %lean_alloc_ctor.exit.i
  tail call void @lean_internal_panic_out_of_memory() #9
  unreachable

l_Lean_Server_FileWorker_handleDocumentHighlight___lambda__2.exit: ; preds = %lean_alloc_ctor.exit.i
  %25 = getelementptr inbounds nuw i8, ptr %22, i64 4
  store i32 1, ptr %22, align 4, !tbaa !4
  store i32 131096, ptr %25, align 4
  %26 = getelementptr inbounds nuw i8, ptr %22, i64 8
  store ptr %17, ptr %26, align 8, !tbaa !10
  %27 = getelementptr inbounds nuw i8, ptr %22, i64 16
  store ptr %3, ptr %27, align 8, !tbaa !10
  %28 = ptrtoint ptr %2 to i64
  %29 = and i64 %28, 1
  %.not10 = icmp eq i64 %29, 0
  br i1 %.not10, label %30, label %lean_dec.exit

30:                                               ; preds = %l_Lean_Server_FileWorker_handleDocumentHighlight___lambda__2.exit
  %31 = load i32, ptr %2, align 4, !tbaa !4
  %32 = icmp sgt i32 %31, 1
  br i1 %32, label %33, label %35, !prof !9

33:                                               ; preds = %30
  %34 = add nsw i32 %31, -1
  store i32 %34, ptr %2, align 4, !tbaa !4
  br label %lean_dec.exit

35:                                               ; preds = %30
  %.not.i8 = icmp eq i32 %31, 0
  br i1 %.not.i8, label %lean_dec.exit, label %36

36:                                               ; preds = %35
  tail call void @lean_dec_ref_cold(ptr noundef nonnull %2) #8
  br label %lean_dec.exit

lean_dec.exit:                                    ; preds = %36, %35, %33, %l_Lean_Server_FileWorker_handleDocumentHighlight___lambda__2.exit
  ret ptr %22
}